(dp0
S'Saturnalia'
p1
(dp2
S'desc'
p3
S'Saturnalia was first brewed for Christmas 2011 and proved so popular it has been hard to replace.  Crisply hoppy, with powerful tropical fruit flavours and satisfyingly bitter finish.'
p4
sS'strength'
p5
F5.3
sS'name'
p6
S'Saturnalia'
p7
sS'cost_price'
p8
F1.7
ssS'Sparta'
p9
(dp10
g3
S'Refreshing pale bitter. Packed with hop flavours and crisp bitterness.'
p11
sg5
F4.3
sg6
S'Sparta'
p12
sg8
F1.52
ssS'Orpheus'
p13
(dp14
g3
S'Dark mild.  Gorgeous chocolate, coffee and vanilla flavours surface in this deep and satisfying pint.'
p15
sg5
F4.2
sg6
S'Orpheus'
p16
sg8
F1.5
ssS'Augustus'
p17
(dp18
g3
S'Pale ale, deceptively strong yet easy drinking. Citrus flavours dominate first then fading to a powerful bitter finish.'
p19
sg5
F5.8
sg6
S'Augustus'
p20
sg8
F1.56
ssS'Promethieus'
p21
(dp22
g3
S'NO SITE FOUND'
p23
sg5
F6.0
sg6
S'Promethieus'
p24
sg8
F1.8
ssS'Icarus'
p25
(dp26
g3
S'Bold, straw coloured bitter, powerful hop flavours backed by a clean malt palate. Satisfying and refreshing.'
p27
sg5
F4.5
sg6
S'Icarus'
p28
sg8
F1.6
ssS'Minerva'
p29
(dp30
g3
S'Golden ale. Brewed with US, NZ and British hops for a powerful hop punch and satisfying bitterness.\nFirst brewed in collaboration with Prof. Mary Beard when it was felt that a some feminine wisdom could usefully be added to our range.'
p31
sg5
F4.6
sg6
S'Minerva'
p32
sg8
F1.6
ssS'Lanterne Rouge'
p33
(dp34
g3
g23
sg5
F6.0
sg6
S'Lanterne Rouge'
p35
sg8
F1.8
ssS'Nike'
p36
(dp37
g3
S'Ruby Ale.  A delicate balance between maltiness and hops makes this dark ruby ale a distinctive and quaffable pint.'
p38
sg5
F4.7
sg6
S'Nike'
p39
sg8
F1.5
ssS'Abeona'
p40
(dp41
g3
S'Goddess of First Steps, appropriate for the first new beer brewed in our new premises.  A golden strong ale, bursting with delicious fruit flavours, assertive hoppiness and backed with a firm bitterness.'
p42
sg5
F5.7
sg6
S'Abeona'
p43
sg8
F1.74
ssS'Medea'
p44
(dp45
g3
S'Extra Strong Mild.  Rich fruit and mocha flavours abound in this deliciously moreish pint.'
p46
sg5
F5.6
sg6
S'Medea'
p47
sg8
F1.51
ssS'Nimrud'
p48
(dp49
g3
S'Straw coloured bitter beer with a fine hoppy finish.'
p50
sg5
F3.8
sg6
S'Nimrud'
p51
sg8
F1.4
ssS'Amphion'
p52
(dp53
g3
g23
sg5
F5.5
sg6
S'Amphion'
p54
sg8
F1.49
ssS'Mammon'
p55
(dp56
g3
S'Hugely flavoursome, rich and warming - this dark and mysterious brew is the ideal beer for a chill winter evening.'
p57
sg5
F7.0
sg6
S'Mammon'
p58
sg8
F1.8
ssS'Jericho'
p59
(dp60
g3
S'Amber coloured bitter beer with a lovely citrus flavour and bitter finish.'
p61
sg5
F4.8
sg6
S'Jericho'
p62
sg8
F1.6
ssS'Colossus'
p63
(dp64
g3
S'Pale and hoppy, this well balanced bitter beerbelies its powerful strength and can surprise the unwary!'
p65
sg5
F5.6
sg6
S'Colossus'
p66
sg8
F1.5
ssS'Neptune'
p67
(dp68
g3
S'A crisp, nutty flavoured copper-coloured ale, with a pronounced hop aroma.'
p69
sg5
F3.8
sg6
S'Neptune'
p70
sg8
F1.09
ssS'Tiki'
p71
(dp72
g3
S'Fruity golden ale, with a pronounced apricot character and a lasting bitter finish.'
p73
sg5
F3.8
sg6
S'Tiki'
p74
sg8
F1.43
ssS'Marcus Aurelius'
p75
(dp76
g3
g23
sg5
F7.5
sg6
S'Marcus Aurelius'
p77
sg8
F1.9
ssS'Cyclops'
p78
(dp79
g3
S'Light copper coloured ale, with a rich hoppy aroma, full body, fruit and malt notes develop in the finish. Brewed with three different malts and four different varieties of hops.'
p80
sg5
F5.3
sg6
S'Cyclops'
p81
sg8
F1.8
ssS'Phoebe'
p82
(dp83
g3
g23
sg5
F4.7
sg6
S'Phoebe'
p84
sg8
F1.48
ssS'Domus Sanctus Peri'
p85
(dp86
g3
g23
sg5
F6.0
sg6
S'Domus Sanctus Peri'
p87
sg8
F1.78
ssS'Dionysus'
p88
(dp89
g3
S'Straw coloured bitter, powerfully hoppy, with a fine citrus finish. Our 501st brew.'
p90
sg5
F3.6
sg6
S'Dionysus'
p91
sg8
F1.4
ssS'Pegasus'
p92
(dp93
g3
S'Complex copper-coloured beer. The initial hoppiness is balanced with a long fruity, malty finish. Very moreish.'
p94
sg5
F4.1
sg6
S'Pegasus'
p95
sg8
F1.47
ssS'Justinian'
p96
(dp97
g3
S'Crisp pale bronze-coloured bitter. Attractive bitter orange flavours persist into a satisfying lasting finish.'
p98
sg5
F3.9
sg6
S'Justinian'
p99
sg8
F1.44
ssS'Orion'
p100
(dp101
g3
g23
sg5
F6.4
sg6
S'Orion'
p102
sg8
F1.7
ssS'Harmonia'
p103
(dp104
g3
g23
sg5
F5.5
sg6
S'Harmonia'
p105
sg8
F1.5
ssS'Troy'
p106
(dp107
g3
S'Powerful full flavoured pale ale. Packed with fruit and hop flavours.'
p108
sg5
F6.0
sg6
S'Troy'
p109
sg8
F1.46
ssS'Proteus'
p110
(dp111
g3
S'Strong pale ale.  Powerful citrus flavours are backed up by a lasting bitterness in this satisfying IPA.'
p112
sg5
F6.2
sg6
S'Proteus'
p113
sg8
F1.79
ssS'Jupiter'
p114
(dp115
g3
S'A golden session beer with a delicate hoppy flavour leading to a satisfying bitter finish.'
p116
sg5
F3.5
sg6
S'Jupiter'
p117
sg8
F1.4
ssS'Nero'
p118
(dp119
g3
S'A satisfying, full-flavoured black brew with a good balance of malt, roast and fruit. Bittersweet flavours carry through to a dry finish.'
p120
sg5
F5.0
sg6
S'Nero'
p121
sg8
F1.45
ssS'Medusa'
p122
(dp123
g3
S'Strong mild.  Cocoa, vanilla and fruitcake aromas are backed by a satisfying yet subtle bitterness.  Very drinkable.'
p124
sg5
F4.6
sg6
S'Medusa'
p125
sg8
F1.6
ssS'Minotaur'
p126
(dp127
g3
S'A rich dark mild with bags of character from the lavish use of chocolate malt.'
p128
sg5
F3.3
sg6
S'Minotaur'
p129
sg8
F1.3
ss.